; ModuleID = '31/1693.c'
source_filename = "31/1693.c"
target datalayout = "e-m:e-p270:32:32-p271:32:32-p272:64:64-i64:64-f80:128-n8:16:32:64-S128"
target triple = "x86_64-pc-linux-gnu"

%struct.stu = type { [200 x i8], %struct.stu* }

@stu = common dso_local global [1000 x %struct.stu] zeroinitializer, align 16
@__const.main.str = private unnamed_addr constant [10 x i8] c"end\00\00\00\00\00\00\00", align 1

; Function Attrs: noinline nounwind uwtable
define dso_local void @main() #0 {
  %1 = alloca i32, align 4
  %2 = alloca %struct.stu*, align 8
  %3 = alloca [10 x i8], align 1
  store %struct.stu* getelementptr inbounds ([1000 x %struct.stu], [1000 x %struct.stu]* @stu, i64 0, i64 0), %struct.stu** %2, align 8
  store i32 0, i32* %1, align 4
  br label %4

4:                                                ; preds = %25, %0
  %5 = load i32, i32* %1, align 4
  %6 = icmp slt i32 %5, 1000
  br i1 %6, label %7, label %30

7:                                                ; preds = %4
  %8 = load %struct.stu*, %struct.stu** %2, align 8
  %9 = getelementptr inbounds %struct.stu, %struct.stu* %8, i32 0, i32 0
  %10 = getelementptr inbounds [200 x i8], [200 x i8]* %9, i64 0, i64 0
  %11 = call i32 (i8*, ...) bitcast (i32 (...)* @gets to i32 (i8*, ...)*)(i8* %10)
  %12 = bitcast [10 x i8]* %3 to i8*
  call void @llvm.memcpy.p0i8.p0i8.i64(i8* align 1 %12, i8* align 1 getelementptr inbounds ([10 x i8], [10 x i8]* @__const.main.str, i32 0, i32 0), i64 10, i1 false)
  %13 = load %struct.stu*, %struct.stu** %2, align 8
  %14 = getelementptr inbounds %struct.stu, %struct.stu* %13, i32 0, i32 0
  %15 = getelementptr inbounds [200 x i8], [200 x i8]* %14, i64 0, i64 0
  %16 = getelementptr inbounds [10 x i8], [10 x i8]* %3, i64 0, i64 0
  %17 = call i32 @strcmp(i8* %15, i8* %16) #4
  %18 = icmp eq i32 %17, 0
  br i1 %18, label %19, label %20

19:                                               ; preds = %7
  br label %30

20:                                               ; preds = %7
  %21 = load %struct.stu*, %struct.stu** %2, align 8
  %22 = getelementptr inbounds %struct.stu, %struct.stu* %21, i64 -1
  %23 = load %struct.stu*, %struct.stu** %2, align 8
  %24 = getelementptr inbounds %struct.stu, %struct.stu* %23, i32 0, i32 1
  store %struct.stu* %22, %struct.stu** %24, align 8
  br label %25

25:                                               ; preds = %20
  %26 = load i32, i32* %1, align 4
  %27 = add nsw i32 %26, 1
  store i32 %27, i32* %1, align 4
  %28 = load %struct.stu*, %struct.stu** %2, align 8
  %29 = getelementptr inbounds %struct.stu, %struct.stu* %28, i32 1
  store %struct.stu* %29, %struct.stu** %2, align 8
  br label %4

30:                                               ; preds = %19, %4
  %31 = load %struct.stu*, %struct.stu** %2, align 8
  %32 = getelementptr inbounds %struct.stu, %struct.stu* %31, i64 -1
  store %struct.stu* %32, %struct.stu** %2, align 8
  store %struct.stu* null, %struct.stu** getelementptr inbounds ([1000 x %struct.stu], [1000 x %struct.stu]* @stu, i64 0, i64 0, i32 1), align 8
  br label %33

33:                                               ; preds = %36, %30
  %34 = load %struct.stu*, %struct.stu** %2, align 8
  %35 = icmp ne %struct.stu* %34, null
  br i1 %35, label %36, label %44

36:                                               ; preds = %33
  %37 = load %struct.stu*, %struct.stu** %2, align 8
  %38 = getelementptr inbounds %struct.stu, %struct.stu* %37, i32 0, i32 0
  %39 = getelementptr inbounds [200 x i8], [200 x i8]* %38, i64 0, i64 0
  %40 = call i32 @puts(i8* %39)
  %41 = load %struct.stu*, %struct.stu** %2, align 8
  %42 = getelementptr inbounds %struct.stu, %struct.stu* %41, i32 0, i32 1
  %43 = load %struct.stu*, %struct.stu** %42, align 8
  store %struct.stu* %43, %struct.stu** %2, align 8
  br label %33

44:                                               ; preds = %33
  ret void
}

declare dso_local i32 @gets(...) #1

; Function Attrs: argmemonly nounwind willreturn
declare void @llvm.memcpy.p0i8.p0i8.i64(i8* noalias nocapture writeonly, i8* noalias nocapture readonly, i64, i1 immarg) #2

; Function Attrs: nounwind readonly
declare dso_local i32 @strcmp(i8*, i8*) #3

declare dso_local i32 @puts(i8*) #1


!llvm.module.flags = !{!0}
!llvm.ident = !{!1}

!0 = !{i32 1, !"wchar_size", i32 4}
!1 = !{!"clang version 10.0.0-4ubuntu1 "}
